target datalayout = "e-m:e-p270:32:32-p271:32:32-p272:64:64-i64:64-i128:128-f80:128-n8:16:32:64-S128"
target triple = "x86_64-pc-linux-gnu"

%struct.GMatchState = type { ptr, ptr, ptr, %struct.MatchState }
%struct.MatchState = type { ptr, ptr, ptr, ptr, i32, i32, [32 x %struct.anon] }
%struct.anon = type { ptr, i64 }

; Function Attrs: nounwind uwtable
define internal void @reprepstate(ptr noundef %0) #0 {
  %2 = alloca ptr, align 8
  store ptr %0, ptr %2, align 8, !tbaa !43
  %3 = load ptr, ptr %2, align 8, !tbaa !43
  %4 = getelementptr inbounds nuw %struct.MatchState, ptr %3, i32 0, i32 5
  store i32 0, ptr %4, align 4, !tbaa !49
  ret void
}

; Function Attrs: nounwind uwtable
define internal i32 @gmatch_aux(ptr noundef %0) #0 {
  %2 = alloca i32, align 4
  %3 = alloca ptr, align 8
  %4 = alloca ptr, align 8
  %5 = alloca ptr, align 8
  %6 = alloca ptr, align 8
  %7 = alloca i32, align 4
  store ptr %0, ptr %3, align 8, !tbaa !4
  call void @llvm.lifetime.start.p0(i64 8, ptr %4) #11
  %8 = load ptr, ptr %3, align 8, !tbaa !4
  %9 = call ptr @lua_touserdata(ptr noundef %8, i32 noundef -1001003)
  store ptr %9, ptr %4, align 8, !tbaa !27
  call void @llvm.lifetime.start.p0(i64 8, ptr %5) #11
  %10 = load ptr, ptr %3, align 8, !tbaa !4
  %11 = load ptr, ptr %4, align 8, !tbaa !27
  %12 = getelementptr inbounds nuw %struct.GMatchState, ptr %11, i32 0, i32 3
  %13 = getelementptr inbounds nuw %struct.MatchState, ptr %12, i32 0, i32 3
  store ptr %10, ptr %13, align 8, !tbaa !63
  %14 = load ptr, ptr %4, align 8, !tbaa !27
  %15 = getelementptr inbounds nuw %struct.GMatchState, ptr %14, i32 0, i32 0
  %16 = load ptr, ptr %15, align 8, !tbaa !29
  store ptr %16, ptr %5, align 8, !tbaa !9
  br label %17

17:                                               ; preds = %56, %1
  %18 = load ptr, ptr %5, align 8, !tbaa !9
  %19 = load ptr, ptr %4, align 8, !tbaa !27
  %20 = getelementptr inbounds nuw %struct.GMatchState, ptr %19, i32 0, i32 3
  %21 = getelementptr inbounds nuw %struct.MatchState, ptr %20, i32 0, i32 1
  %22 = load ptr, ptr %21, align 8, !tbaa !64
  %23 = icmp ule ptr %18, %22
  br i1 %23, label %24, label %59

24:                                               ; preds = %17
  call void @llvm.lifetime.start.p0(i64 8, ptr %6) #11
  %25 = load ptr, ptr %4, align 8, !tbaa !27
  %26 = getelementptr inbounds nuw %struct.GMatchState, ptr %25, i32 0, i32 3
  call void @reprepstate(ptr noundef %26)
  %27 = load ptr, ptr %4, align 8, !tbaa !27
  %28 = getelementptr inbounds nuw %struct.GMatchState, ptr %27, i32 0, i32 3
  %29 = load ptr, ptr %5, align 8, !tbaa !9
  %30 = load ptr, ptr %4, align 8, !tbaa !27
  %31 = getelementptr inbounds nuw %struct.GMatchState, ptr %30, i32 0, i32 1
  %32 = load ptr, ptr %31, align 8, !tbaa !32
  %33 = call ptr @match(ptr noundef %28, ptr noundef %29, ptr noundef %32)
  store ptr %33, ptr %6, align 8, !tbaa !9
  %34 = icmp ne ptr %33, null
  br i1 %34, label %35, label %52

35:                                               ; preds = %24
  %36 = load ptr, ptr %6, align 8, !tbaa !9
  %37 = load ptr, ptr %4, align 8, !tbaa !27
  %38 = getelementptr inbounds nuw %struct.GMatchState, ptr %37, i32 0, i32 2
  %39 = load ptr, ptr %38, align 8, !tbaa !33
  %40 = icmp ne ptr %36, %39
  br i1 %40, label %41, label %52

41:                                               ; preds = %35
  %42 = load ptr, ptr %6, align 8, !tbaa !9
  %43 = load ptr, ptr %4, align 8, !tbaa !27
  %44 = getelementptr inbounds nuw %struct.GMatchState, ptr %43, i32 0, i32 2
  store ptr %42, ptr %44, align 8, !tbaa !33
  %45 = load ptr, ptr %4, align 8, !tbaa !27
  %46 = getelementptr inbounds nuw %struct.GMatchState, ptr %45, i32 0, i32 0
  store ptr %42, ptr %46, align 8, !tbaa !29
  %47 = load ptr, ptr %4, align 8, !tbaa !27
  %48 = getelementptr inbounds nuw %struct.GMatchState, ptr %47, i32 0, i32 3
  %49 = load ptr, ptr %5, align 8, !tbaa !9
  %50 = load ptr, ptr %6, align 8, !tbaa !9
  %51 = call i32 @push_captures(ptr noundef %48, ptr noundef %49, ptr noundef %50)
  store i32 %51, ptr %2, align 4
  store i32 1, ptr %7, align 4
  br label %53

52:                                               ; preds = %35, %24
  store i32 0, ptr %7, align 4
  br label %53

53:                                               ; preds = %52, %41
  call void @llvm.lifetime.end.p0(i64 8, ptr %6) #11
  %54 = load i32, ptr %7, align 4
  switch i32 %54, label %60 [
    i32 0, label %55
  ]

55:                                               ; preds = %53
  br label %56

56:                                               ; preds = %55
  %57 = load ptr, ptr %5, align 8, !tbaa !9
  %58 = getelementptr inbounds nuw i8, ptr %57, i32 1
  store ptr %58, ptr %5, align 8, !tbaa !9
  br label %17

59:                                               ; preds = %17
  store i32 0, ptr %2, align 4
  store i32 1, ptr %7, align 4
  br label %60

60:                                               ; preds = %59, %53
  call void @llvm.lifetime.end.p0(i64 8, ptr %5) #11
  call void @llvm.lifetime.end.p0(i64 8, ptr %4) #11
  %61 = load i32, ptr %2, align 4
  ret i32 %61
}