; Function Attrs: nounwind uwtable
define internal noundef i32 @gmatch_aux(ptr noundef %0) #0 {
  %2 = tail call ptr @lua_touserdata(ptr noundef %0, i32 noundef -1001003) #12
  %3 = getelementptr inbounds nuw i8, ptr %2, i64 24
  %4 = getelementptr inbounds nuw i8, ptr %2, i64 48
  store ptr %0, ptr %4, align 8, !tbaa !55
  %5 = load ptr, ptr %2, align 8, !tbaa !33
  %6 = getelementptr inbounds nuw i8, ptr %2, i64 32
  %7 = load ptr, ptr %6, align 8, !tbaa !56
  %.not30 = icmp ugt ptr %5, %7
  br i1 %.not30, label %.loopexit, label %.lr.ph

.lr.ph:                                           ; preds = %1
  %8 = getelementptr inbounds nuw i8, ptr %2, i64 60
  %9 = getelementptr inbounds nuw i8, ptr %2, i64 8
  %10 = getelementptr inbounds nuw i8, ptr %2, i64 16
  br label %11

11:                                               ; preds = %.lr.ph, %18
  %.02131 = phi ptr [ %5, %.lr.ph ], [ %19, %18 ]
  store i32 0, ptr %8, align 4, !tbaa !37
  %12 = load ptr, ptr %9, align 8, !tbaa !35
  %13 = tail call fastcc ptr @match(ptr noundef nonnull %3, ptr noundef %.02131, ptr noundef %12)
  %.not23 = icmp eq ptr %13, null
  br i1 %.not23, label %18, label %14

14:                                               ; preds = %11
  %15 = load ptr, ptr %10, align 8, !tbaa !36
  %.not24 = icmp eq ptr %13, %15
  br i1 %.not24, label %18, label %16

16:                                               ; preds = %14
  store ptr %13, ptr %10, align 8, !tbaa !36
  store ptr %13, ptr %2, align 8, !tbaa !33
  %17 = tail call fastcc i32 @push_captures(ptr noundef nonnull %3, ptr noundef %.02131, ptr noundef nonnull %13)
  br label %.loopexit

18:                                               ; preds = %14, %11
  %19 = getelementptr inbounds nuw i8, ptr %.02131, i64 1
  %20 = load ptr, ptr %6, align 8, !tbaa !56
  %.not = icmp ugt ptr %19, %20
  br i1 %.not, label %.loopexit, label %11

.loopexit:                                        ; preds = %18, %1, %16
  %.2 = phi i32 [ %17, %16 ], [ 0, %1 ], [ 0, %18 ]
  ret i32 %.2
}